; ModuleID = '49/801.c'
source_filename = "49/801.c"
target datalayout = "e-m:e-p270:32:32-p271:32:32-p272:64:64-i64:64-f80:128-n8:16:32:64-S128"
target triple = "x86_64-pc-linux-gnu"

@.str = private unnamed_addr constant [3 x i8] c"%c\00", align 1
@.str.1 = private unnamed_addr constant [2 x i8] c"\0A\00", align 1

; Function Attrs: noinline nounwind uwtable
define dso_local i32 @main() #0 {
  %1 = alloca i32, align 4
  %2 = alloca [2000 x i8], align 16
  %3 = alloca i32, align 4
  %4 = alloca i32, align 4
  %5 = alloca i32, align 4
  %6 = alloca i32, align 4
  store i32 0, i32* %1, align 4
  store i32 0, i32* %3, align 4
  br label %7

7:                                                ; preds = %14, %0
  %8 = load i32, i32* %3, align 4
  %9 = icmp sle i32 %8, 500
  br i1 %9, label %10, label %17

10:                                               ; preds = %7
  %11 = load i32, i32* %3, align 4
  %12 = sext i32 %11 to i64
  %13 = getelementptr inbounds [2000 x i8], [2000 x i8]* %2, i64 0, i64 %12
  store i8 0, i8* %13, align 1
  br label %14

14:                                               ; preds = %10
  %15 = load i32, i32* %3, align 4
  %16 = add nsw i32 %15, 1
  store i32 %16, i32* %3, align 4
  br label %7

17:                                               ; preds = %7
  %18 = getelementptr inbounds [2000 x i8], [2000 x i8]* %2, i64 0, i64 0
  %19 = call i32 (i8*, ...) bitcast (i32 (...)* @gets to i32 (i8*, ...)*)(i8* %18)
  store i32 2, i32* %3, align 4
  br label %20

20:                                               ; preds = %94, %17
  %21 = load i32, i32* %3, align 4
  %22 = icmp sle i32 %21, 500
  br i1 %22, label %23, label %97

23:                                               ; preds = %20
  store i32 0, i32* %4, align 4
  br label %24

24:                                               ; preds = %90, %23
  %25 = load i32, i32* %4, align 4
  %26 = icmp sle i32 %25, 500
  br i1 %26, label %27, label %93

27:                                               ; preds = %24
  %28 = load i32, i32* %4, align 4
  %29 = sext i32 %28 to i64
  %30 = getelementptr inbounds [2000 x i8], [2000 x i8]* %2, i64 0, i64 %29
  %31 = load i8, i8* %30, align 1
  %32 = sext i8 %31 to i32
  %33 = icmp ne i32 %32, 0
  br i1 %33, label %34, label %65

34:                                               ; preds = %27
  store i32 1, i32* %6, align 4
  store i32 0, i32* %5, align 4
  br label %35

35:                                               ; preds = %61, %34
  %36 = load i32, i32* %5, align 4
  %37 = load i32, i32* %3, align 4
  %38 = sdiv i32 %37, 2
  %39 = icmp sle i32 %36, %38
  br i1 %39, label %40, label %64

40:                                               ; preds = %35
  %41 = load i32, i32* %4, align 4
  %42 = load i32, i32* %5, align 4
  %43 = add nsw i32 %41, %42
  %44 = sext i32 %43 to i64
  %45 = getelementptr inbounds [2000 x i8], [2000 x i8]* %2, i64 0, i64 %44
  %46 = load i8, i8* %45, align 1
  %47 = sext i8 %46 to i32
  %48 = load i32, i32* %4, align 4
  %49 = load i32, i32* %3, align 4
  %50 = add nsw i32 %48, %49
  %51 = load i32, i32* %5, align 4
  %52 = sub nsw i32 %50, %51
  %53 = sub nsw i32 %52, 1
  %54 = sext i32 %53 to i64
  %55 = getelementptr inbounds [2000 x i8], [2000 x i8]* %2, i64 0, i64 %54
  %56 = load i8, i8* %55, align 1
  %57 = sext i8 %56 to i32
  %58 = icmp ne i32 %47, %57
  br i1 %58, label %59, label %60

59:                                               ; preds = %40
  store i32 0, i32* %6, align 4
  br label %64

60:                                               ; preds = %40
  br label %61

61:                                               ; preds = %60
  %62 = load i32, i32* %5, align 4
  %63 = add nsw i32 %62, 1
  store i32 %63, i32* %5, align 4
  br label %35

64:                                               ; preds = %59, %35
  br label %65

65:                                               ; preds = %64, %27
  %66 = load i32, i32* %6, align 4
  %67 = icmp eq i32 %66, 1
  br i1 %67, label %68, label %89

68:                                               ; preds = %65
  %69 = load i32, i32* %4, align 4
  store i32 %69, i32* %5, align 4
  br label %70

70:                                               ; preds = %84, %68
  %71 = load i32, i32* %5, align 4
  %72 = load i32, i32* %4, align 4
  %73 = load i32, i32* %3, align 4
  %74 = add nsw i32 %72, %73
  %75 = sub nsw i32 %74, 1
  %76 = icmp sle i32 %71, %75
  br i1 %76, label %77, label %87

77:                                               ; preds = %70
  %78 = load i32, i32* %5, align 4
  %79 = sext i32 %78 to i64
  %80 = getelementptr inbounds [2000 x i8], [2000 x i8]* %2, i64 0, i64 %79
  %81 = load i8, i8* %80, align 1
  %82 = sext i8 %81 to i32
  %83 = call i32 (i8*, ...) @printf(i8* getelementptr inbounds ([3 x i8], [3 x i8]* @.str, i64 0, i64 0), i32 %82)
  br label %84

84:                                               ; preds = %77
  %85 = load i32, i32* %5, align 4
  %86 = add nsw i32 %85, 1
  store i32 %86, i32* %5, align 4
  br label %70

87:                                               ; preds = %70
  %88 = call i32 (i8*, ...) @printf(i8* getelementptr inbounds ([2 x i8], [2 x i8]* @.str.1, i64 0, i64 0))
  br label %89

89:                                               ; preds = %87, %65
  br label %90

90:                                               ; preds = %89
  %91 = load i32, i32* %4, align 4
  %92 = add nsw i32 %91, 1
  store i32 %92, i32* %4, align 4
  br label %24

93:                                               ; preds = %24
  br label %94

94:                                               ; preds = %93
  %95 = load i32, i32* %3, align 4
  %96 = add nsw i32 %95, 2
  store i32 %96, i32* %3, align 4
  br label %20

97:                                               ; preds = %20
  ret i32 0
}

declare dso_local i32 @gets(...) #1

declare dso_local i32 @printf(i8*, ...) #1


!llvm.module.flags = !{!0}
!llvm.ident = !{!1}

!0 = !{i32 1, !"wchar_size", i32 4}
!1 = !{!"clang version 10.0.0-4ubuntu1 "}
